Certificate:
    Data:
        Version: 3 (0x2)
        Serial Number:
            94:de:64:63:4f:0a:0e:54:a5:13:85:e7:15:d0:80:69
        Signature Algorithm: sha256WithRSAEncryption
        Issuer: CN=vpn-server
        Validity
            Not Before: Jan 11 08:17:36 2025 GMT
            Not After : Apr 16 08:17:36 2027 GMT
        Subject: CN=MyVPN-CA
        Subject Public Key Info:
            Public Key Algorithm: rsaEncryption
                Public-Key: (2048 bit)
                Modulus:
                    00:a6:3a:38:78:1a:bb:54:cb:e7:8b:3d:cb:41:52:
                    90:cf:cf:17:be:7e:66:23:f2:2f:21:8b:aa:99:a9:
                    8d:48:c9:9d:d5:d6:7f:18:ae:73:74:1a:2d:c7:5f:
                    eb:61:89:4e:8e:56:77:00:53:cc:e2:df:54:03:c6:
                    26:a9:7c:73:cd:17:70:45:fd:61:0a:58:ce:af:aa:
                    ca:97:54:05:ef:8d:35:2c:05:4f:78:54:fa:59:68:
                    c7:aa:5f:69:5b:1c:d4:8c:10:4b:f9:c2:04:57:15:
                    55:89:26:54:52:ea:0e:28:86:33:46:1c:a3:60:81:
                    74:e3:67:5b:9f:9c:5c:ea:e5:8e:d6:02:5a:1a:c5:
                    35:99:d8:be:39:2a:54:5d:e4:2e:89:1b:80:b4:ed:
                    de:84:67:b7:fd:7f:eb:10:1a:23:85:e5:43:27:7a:
                    c9:50:73:b8:70:4e:59:aa:ca:ee:2f:40:5a:73:8e:
                    8f:09:c6:16:8a:27:f6:68:01:42:a8:78:66:17:9e:
                    f1:4a:70:3e:31:78:ba:06:08:3e:09:27:70:7c:98:
                    c2:98:ac:64:e2:56:26:3c:d2:b8:24:d2:6a:92:29:
                    e4:63:fb:27:84:87:0b:f8:86:fa:db:0d:48:02:d0:
                    ea:09:7f:5b:19:73:47:18:4c:32:12:cf:e7:cf:66:
                    04:b5
                Exponent: 65537 (0x10001)
        X509v3 extensions:
            X509v3 Basic Constraints: 
                CA:FALSE
            X509v3 Subject Key Identifier: 
                46:1F:B1:68:99:41:DD:F5:96:2E:31:9A:CE:1B:8B:F6:55:DE:96:79
            X509v3 Authority Key Identifier: 
                keyid:34:9F:42:D0:5F:FF:8C:86:CA:2F:C4:D6:78:AA:5C:A1:FF:D0:15:3E
                DirName:/CN=vpn-server
                serial:3C:84:7B:22:70:98:CE:E3:CF:5E:05:6A:A7:38:A5:B5:1E:49:19:D9
            X509v3 Extended Key Usage: 
                TLS Web Client Authentication
            X509v3 Key Usage: 
                Digital Signature
    Signature Algorithm: sha256WithRSAEncryption
    Signature Value:
        5e:13:10:37:1d:38:2a:cd:06:2c:85:ac:9c:cd:07:a1:7c:af:
        d0:7a:3e:9b:4f:8d:0d:44:fc:0b:92:2a:67:6a:cb:c6:dd:91:
        9f:58:75:2f:f2:10:21:f4:2d:d4:96:e5:75:9d:29:26:a5:8e:
        72:54:b2:37:f1:6d:8e:9b:62:15:9f:6c:d0:82:e0:39:47:d5:
        3a:41:c5:a0:17:2b:30:a9:a5:a6:0a:e0:31:02:20:6e:17:5f:
        37:0d:b5:25:81:f8:14:ca:ea:6e:60:51:ba:98:7a:c3:e6:07:
        1d:c8:97:6f:2c:12:3e:15:48:5c:b9:44:92:29:3a:94:b8:d8:
        d3:97:4e:b9:46:d1:3a:75:7a:84:99:3f:ac:a1:64:a9:c2:98:
        20:52:e7:8e:01:bf:11:b7:7e:e4:f0:b3:ae:e9:91:53:de:6a:
        94:94:36:86:34:58:2e:18:fd:cd:40:08:a1:ef:80:12:c5:e0:
        a7:71:8c:01:a6:59:4c:fd:5c:94:b2:cd:3f:c5:33:c6:e7:54:
        b9:a1:71:35:8c:be:f2:60:a7:6e:80:c1:23:d7:e7:04:66:af:
        68:06:c9:57:79:3b:47:bd:f2:39:b0:31:fa:ce:e7:ee:d6:39:
        f8:0c:fa:b1:4a:1a:2d:e3:18:cc:55:bb:d4:df:9e:9c:9f:5c:
        e3:65:d6:bb
-----BEGIN CERTIFICATE-----
MIIDVTCCAj2gAwIBAgIRAJTeZGNPCg5UpROF5xXQgGkwDQYJKoZIhvcNAQELBQAw
FTETMBEGA1UEAwwKdnBuLXNlcnZlcjAeFw0yNTAxMTEwODE3MzZaFw0yNzA0MTYw
ODE3MzZaMBMxETAPBgNVBAMMCE15VlBOLUNBMIIBIjANBgkqhkiG9w0BAQEFAAOC
AQ8AMIIBCgKCAQEApjo4eBq7VMvniz3LQVKQz88Xvn5mI/IvIYuqmamNSMmd1dZ/
GK5zdBotx1/rYYlOjlZ3AFPM4t9UA8YmqXxzzRdwRf1hCljOr6rKl1QF7401LAVP
eFT6WWjHql9pWxzUjBBL+cIEVxVViSZUUuoOKIYzRhyjYIF042dbn5xc6uWO1gJa
GsU1mdi+OSpUXeQuiRuAtO3ehGe3/X/rEBojheVDJ3rJUHO4cE5ZqsruL0Bac46P
CcYWiif2aAFCqHhmF57xSnA+MXi6Bgg+CSdwfJjCmKxk4lYmPNK4JNJqkinkY/sn
hIcL+Ib62w1IAtDqCX9bGXNHGEwyEs/nz2YEtQIDAQABo4GhMIGeMAkGA1UdEwQC
MAAwHQYDVR0OBBYEFEYfsWiZQd31li4xms4bi/ZV3pZ5MFAGA1UdIwRJMEeAFDSf
QtBf/4yGyi/E1niqXKH/0BU+oRmkFzAVMRMwEQYDVQQDDAp2cG4tc2VydmVyghQ8
hHsicJjO489eBWqnOKW1HkkZ2TATBgNVHSUEDDAKBggrBgEFBQcDAjALBgNVHQ8E
BAMCB4AwDQYJKoZIhvcNAQELBQADggEBAF4TEDcdOCrNBiyFrJzNB6F8r9B6PptP
jQ1E/AuSKmdqy8bdkZ9YdS/yECH0LdSW5XWdKSaljnJUsjfxbY6bYhWfbNCC4DlH
1TpBxaAXKzCppaYK4DECIG4XXzcNtSWB+BTK6m5gUbqYesPmBx3Il28sEj4VSFy5
RJIpOpS42NOXTrlG0Tp1eoSZP6yhZKnCmCBS544BvxG3fuTws67pkVPeapSUNoY0
WC4Y/c1ACKHvgBLF4KdxjAGmWUz9XJSyzT/FM8bnVLmhcTWMvvJgp26AwSPX5wRm
r2gGyVd5O0e98jmwMfrO5+7WOfgM+rFKGi3jGMxVu9TfnpyfXONl1rs=
-----END CERTIFICATE-----
